(dp1
S'comfort'
p2
I0
sS'help'
p3
I0
sS'move'
p4
I0
sS'dispel'
p5
I0
sS'reconstruct'
p6
I1
sS'go'
p7
I0
sS'range'
p8
I0
sS'yes'
p9
I0
sS'consider'
p10
I0
sS'blow'
p11
I0
sS'writer'
p12
I0
sS'send'
p13
I0
sS'add'
p14
I0
sS'persist'
p15
I0
sS'include'
p16
I0
sS'chairman'
p17
I0
sS'hit'
p18
I0
sS'get'
p19
I0
sS'big'
p20
I0
sS'photography'
p21
I0
sS'rise'
p22
I0
sS'unveil'
p23
I0
sS'break'
p24
I0
sS'course'
p25
I0
sS'know'
p26
I0
sS'fall'
p27
I0
sS'report'
p28
I0
sS'affect'
p29
I0
sS'trouble'
p30
I0
sS'day'
p31
I0
sS'encounter'
p32
I1
sS'like'
p33
I0
sS'down'
p34
I0
sS'name'
p35
I0
sS'level'
p36
I0
sS'pinch'
p37
I1
sS'preclude'
p38
I0
sS'drop'
p39
I0
sS'try'
p40
I0
sS'benefit'
p41
I0
sS'follow'
p42
I0
sS'tumult'
p43
I0
sS'become'
p44
I0
sS'signal'
p45
I0
sS'mean'
p46
I0
sS'enjoy'
p47
I1
sS'set'
p48
I0
sS'force'
p49
I0
sS'tumble'
p50
I0
sS'participate'
p51
I1
sS'reduce'
p52
I0
sS'tighten'
p53
I0
sS'crop'
p54
I0
sS'jump'
p55
I0
sS'see'
p56
I0
sS'erase'
p57
I0
sS'expect'
p58
I0
sS'year'
p59
I0
sS'close'
p60
I0
sS'happen'
p61
I0
sS'underpaid'
p62
I0
sS'leave'
p63
I0
sS'mull'
p64
I1
sS'riveting'
p65
I0
sS'miss'
p66
I0
sS'review'
p67
I0
sS'increase'
p68
I0
sNI4
sS'enough'
p69
I0
sS'limit'
p70
I0
sS'disclose'
p71
I0
sS'shut'
p72
I0
sS'run'
p73
I0
sS'extend'
p74
I0
sS'schedule'
p75
I0
sS'use'
p76
I0
sS'possibility'
p77
I0
sS'poise'
p78
I1
sS'qualify'
p79
I0
sS'post'
p80
I0
sS'come'
p81
I0
sS'cautious'
p82
I0
sS'healthy'
p83
I0
sS'tethered'
p84
I0
sS'outpace'
p85
I0
sS'stricken'
p86
I0
sS'renew'
p87
I0
sS'place'
p88
I0
sS'mixed'
p89
I0
sS'commit'
p90
I1
sS'implement'
p91
I0
sS'profess'
p92
I1
sS'angry'
p93
I0
sS'block'
p94
I0
sS'own'
p95
I0
sS'useful'
p96
I0
sS'supply'
p97
I0
sS'feel'
p98
I0
sS'win'
p99
I0
sS'replace'
p100
I0
sS'recognize'
p101
I0
sS'open'
p102
I0
sS'decline'
p103
I0
sS'differ'
p104
I0
sS'recur'
p105
I1
sS'start'
p106
I0
sS'support'
p107
I0
sS'question'
p108
I0
sS'submit'
p109
I0
sS'mark'
p110
I0
sS'confident'
p111
I0
sS'trigger'
p112
I0
sS'lot'
p113
I0
sS'recommend'
p114
I0
sS'troubling'
p115
I0
sS'firm'
p116
I0
sS'buy'
p117
I0
sS'offer'
p118
I0
sS'acquire'
p119
I0
sS'serve'
p120
I0
sS'hurt'
p121
I0
sS'outnumber'
p122
I1
sS'demand'
p123
I0
sS'catch'
p124
I0
sS'play'
p125
I0
sS'rebound'
p126
I0
sS'target'
p127
I0
sS'hour'
p128
I0
sS'require'
p129
I0
sS'work'
p130
I0
sS'receive'
p131
I0
sS'remain'
p132
I0
sS'suppose'
p133
I0
sS'caution'
p134
I1
sS'latch'
p135
I1
sS'control'
p136
I0
sS'want'
p137
I0
sS'figure'
p138
I0
sS'predict'
p139
I0
sS'lock'
p140
I0
sS'Late'
p141
I0
sS'say'
p142
I0
sS'exist'
p143
I0
sS'optimistic'
p144
I0
sS'have'
p145
I0
sS'handle'
p146
I0
sS'seem'
p147
I0
sS'recover'
p148
I0
sS'attract'
p149
I0
sS'sell'
p150
I0
sS'capture'
p151
I0
sS'spell'
p152
I1
sS'develop'
p153
I0
sS'make'
p154
I0
sS'attribute'
p155
I1
sS'able'
p156
I0
sS'cross'
p157
I2
sS'member'
p158
I0
sS'take'
p159
I0
sS'test'
p160
I0
sS'panic'
p161
I0
sS'slate'
p162
I0
sS'begin'
p163
I0
sS'sure'
p164
I0
sS'inheritor'
p165
I0
sS'track'
p166
I0
sS'negotiate'
p167
I0
sS'produce'
p168
I0
sS'end'
p169
I0
sS'nation'
p170
I0
sS'opportunity'
p171
I0
sS'grow'
p172
I0
sS'expand'
p173
I0
sS'purchase'
p174
I0
sS'lower'
p175
I0
sS'well'
p176
I0
sS'face'
p177
I0
sS'coordinate'
p178
I1
sS'order'
p179
I0
sS'talk'
p180
I0
s.(lp1
(S'reconstruct'
p2
I1
tp3
a(S'encounter'
p4
I1
tp5
a(S'pinch'
p6
I1
tp7
a(S'enjoy'
p8
I1
tp9
a(S'participate'
p10
I1
tp11
a(S'mull'
p12
I1
tp13
a(NI4
tp14
a(S'poise'
p15
I1
tp16
a(S'commit'
p17
I1
tp18
a(S'profess'
p19
I1
tp20
a(S'recur'
p21
I1
tp22
a(S'outnumber'
p23
I1
tp24
a(S'caution'
p25
I1
tp26
a(S'latch'
p27
I1
tp28
a(S'spell'
p29
I1
tp30
a(S'attribute'
p31
I1
tp32
a(S'cross'
p33
I2
tp34
a(S'coordinate'
p35
I1
tp36
a.